target datalayout = "e-m:e-p270:32:32-p271:32:32-p272:64:64-i64:64-i128:128-f80:128-n8:16:32:64-S128"
target triple = "x86_64-unknown-linux-gnu"

%struct.Type = type { i32, i32, i32, i8, i8, ptr, ptr, ptr, ptr, i32, ptr, ptr, ptr, i8, i8, ptr, ptr, i8, ptr }
%struct.Member = type { ptr, ptr, ptr, ptr, i32, i32, i32, i8, i32, i32 }
%struct.Initializer = type { ptr, ptr, ptr, i8, ptr, ptr, ptr }

; Function Attrs: nounwind uwtable
define internal ptr @copy_struct_type(ptr noundef %ty) #0 {
entry:
  %ty.addr = alloca ptr, align 8
  %head = alloca %struct.Member, align 8
  %cur = alloca ptr, align 8
  %mem = alloca ptr, align 8
  %m = alloca ptr, align 8
  store ptr %ty, ptr %ty.addr, align 8
  %0 = load ptr, ptr %ty.addr, align 8
  %call = call ptr @copy_type(ptr noundef %0)
  store ptr %call, ptr %ty.addr, align 8
  call void @llvm.memset.p0.i64(ptr align 8 %head, i8 0, i64 56, i1 false)
  store ptr %head, ptr %cur, align 8
  %1 = load ptr, ptr %ty.addr, align 8
  %members = getelementptr inbounds %struct.Type, ptr %1, i32 0, i32 12
  %2 = load ptr, ptr %members, align 8
  store ptr %2, ptr %mem, align 8
  br label %for.cond

for.cond:                                         ; preds = %for.inc, %entry
  %3 = load ptr, ptr %mem, align 8
  %tobool = icmp ne ptr %3, null
  br i1 %tobool, label %for.body, label %for.end

for.body:                                         ; preds = %for.cond
  %call1 = call noalias ptr @calloc(i64 noundef 1, i64 noundef 56) #8
  store ptr %call1, ptr %m, align 8
  %4 = load ptr, ptr %m, align 8
  %5 = load ptr, ptr %mem, align 8
  call void @llvm.memcpy.p0.p0.i64(ptr align 8 %4, ptr align 8 %5, i64 56, i1 false)
  %6 = load ptr, ptr %m, align 8
  %7 = load ptr, ptr %cur, align 8
  %next = getelementptr inbounds %struct.Member, ptr %7, i32 0, i32 0
  store ptr %6, ptr %next, align 8
  store ptr %6, ptr %cur, align 8
  br label %for.inc

for.inc:                                          ; preds = %for.body
  %8 = load ptr, ptr %mem, align 8
  %next2 = getelementptr inbounds %struct.Member, ptr %8, i32 0, i32 0
  %9 = load ptr, ptr %next2, align 8
  store ptr %9, ptr %mem, align 8
  br label %for.cond, !llvm.loop !34

for.end:                                          ; preds = %for.cond
  %next3 = getelementptr inbounds %struct.Member, ptr %head, i32 0, i32 0
  %10 = load ptr, ptr %next3, align 8
  %11 = load ptr, ptr %ty.addr, align 8
  %members4 = getelementptr inbounds %struct.Type, ptr %11, i32 0, i32 12
  store ptr %10, ptr %members4, align 8
  %12 = load ptr, ptr %ty.addr, align 8
  ret ptr %12
}

; Function Attrs: nounwind uwtable
define internal ptr @initializer(ptr noundef %rest, ptr noundef %tok, ptr noundef %ty, ptr noundef %new_ty) #0 {
entry:
  %retval = alloca ptr, align 8
  %rest.addr = alloca ptr, align 8
  %tok.addr = alloca ptr, align 8
  %ty.addr = alloca ptr, align 8
  %new_ty.addr = alloca ptr, align 8
  %init = alloca ptr, align 8
  %mem = alloca ptr, align 8
  store ptr %rest, ptr %rest.addr, align 8
  store ptr %tok, ptr %tok.addr, align 8
  store ptr %ty, ptr %ty.addr, align 8
  store ptr %new_ty, ptr %new_ty.addr, align 8
  %0 = load ptr, ptr %ty.addr, align 8
  %call = call ptr @new_initializer(ptr noundef %0, i1 noundef zeroext true)
  store ptr %call, ptr %init, align 8
  %1 = load ptr, ptr %rest.addr, align 8
  %2 = load ptr, ptr %tok.addr, align 8
  %3 = load ptr, ptr %init, align 8
  call void @initializer2(ptr noundef %1, ptr noundef %2, ptr noundef %3)
  %4 = load ptr, ptr %ty.addr, align 8
  %kind = getelementptr inbounds %struct.Type, ptr %4, i32 0, i32 0
  %5 = load i32, ptr %kind, align 8
  %cmp = icmp eq i32 %5, 14
  br i1 %cmp, label %land.lhs.true, label %lor.lhs.false

lor.lhs.false:                                    ; preds = %entry
  %6 = load ptr, ptr %ty.addr, align 8
  %kind1 = getelementptr inbounds %struct.Type, ptr %6, i32 0, i32 0
  %7 = load i32, ptr %kind1, align 8
  %cmp2 = icmp eq i32 %7, 15
  br i1 %cmp2, label %land.lhs.true, label %if.end

land.lhs.true:                                    ; preds = %lor.lhs.false, %entry
  %8 = load ptr, ptr %ty.addr, align 8
  %is_flexible = getelementptr inbounds %struct.Type, ptr %8, i32 0, i32 13
  %9 = load i8, ptr %is_flexible, align 8
  %tobool = trunc i8 %9 to i1
  br i1 %tobool, label %if.then, label %if.end

if.then:                                          ; preds = %land.lhs.true
  %10 = load ptr, ptr %ty.addr, align 8
  %call3 = call ptr @copy_struct_type(ptr noundef %10)
  store ptr %call3, ptr %ty.addr, align 8
  %11 = load ptr, ptr %ty.addr, align 8
  %members = getelementptr inbounds %struct.Type, ptr %11, i32 0, i32 12
  %12 = load ptr, ptr %members, align 8
  store ptr %12, ptr %mem, align 8
  br label %while.cond

while.cond:                                       ; preds = %while.body, %if.then
  %13 = load ptr, ptr %mem, align 8
  %next = getelementptr inbounds %struct.Member, ptr %13, i32 0, i32 0
  %14 = load ptr, ptr %next, align 8
  %tobool4 = icmp ne ptr %14, null
  br i1 %tobool4, label %while.body, label %while.end

while.body:                                       ; preds = %while.cond
  %15 = load ptr, ptr %mem, align 8
  %next5 = getelementptr inbounds %struct.Member, ptr %15, i32 0, i32 0
  %16 = load ptr, ptr %next5, align 8
  store ptr %16, ptr %mem, align 8
  br label %while.cond, !llvm.loop !28

while.end:                                        ; preds = %while.cond
  %17 = load ptr, ptr %init, align 8
  %children = getelementptr inbounds %struct.Initializer, ptr %17, i32 0, i32 5
  %18 = load ptr, ptr %children, align 8
  %19 = load ptr, ptr %mem, align 8
  %idx = getelementptr inbounds %struct.Member, ptr %19, i32 0, i32 4
  %20 = load i32, ptr %idx, align 8
  %idxprom = sext i32 %20 to i64
  %arrayidx = getelementptr inbounds ptr, ptr %18, i64 %idxprom
  %21 = load ptr, ptr %arrayidx, align 8
  %ty6 = getelementptr inbounds %struct.Initializer, ptr %21, i32 0, i32 1
  %22 = load ptr, ptr %ty6, align 8
  %23 = load ptr, ptr %mem, align 8
  %ty7 = getelementptr inbounds %struct.Member, ptr %23, i32 0, i32 1
  store ptr %22, ptr %ty7, align 8
  %24 = load ptr, ptr %mem, align 8
  %ty8 = getelementptr inbounds %struct.Member, ptr %24, i32 0, i32 1
  %25 = load ptr, ptr %ty8, align 8
  %size = getelementptr inbounds %struct.Type, ptr %25, i32 0, i32 1
  %26 = load i32, ptr %size, align 4
  %27 = load ptr, ptr %ty.addr, align 8
  %size9 = getelementptr inbounds %struct.Type, ptr %27, i32 0, i32 1
  %28 = load i32, ptr %size9, align 4
  %add = add nsw i32 %28, %26
  store i32 %add, ptr %size9, align 4
  %29 = load ptr, ptr %ty.addr, align 8
  %30 = load ptr, ptr %new_ty.addr, align 8
  store ptr %29, ptr %30, align 8
  %31 = load ptr, ptr %init, align 8
  store ptr %31, ptr %retval, align 8
  br label %return

if.end:                                           ; preds = %land.lhs.true, %lor.lhs.false
  %32 = load ptr, ptr %init, align 8
  %ty10 = getelementptr inbounds %struct.Initializer, ptr %32, i32 0, i32 1
  %33 = load ptr, ptr %ty10, align 8
  %34 = load ptr, ptr %new_ty.addr, align 8
  store ptr %33, ptr %34, align 8
  %35 = load ptr, ptr %init, align 8
  store ptr %35, ptr %retval, align 8
  br label %return

return:                                           ; preds = %if.end, %while.end
  %36 = load ptr, ptr %retval, align 8
  ret ptr %36
}