; Function Attrs: nounwind uwtable
define internal fastcc noundef ptr @initializer(ptr noundef %rest, ptr noundef %tok, ptr noundef %ty, ptr nocapture noundef writeonly %new_ty) unnamed_addr #0 {
entry:
  %head.sroa.0.i = alloca ptr, align 8
  %call = tail call fastcc ptr @new_initializer(ptr noundef %ty, i1 noundef zeroext true)
  tail call fastcc void @initializer2(ptr noundef %rest, ptr noundef %tok, ptr noundef %call)
  %0 = load i32, ptr %ty, align 8
  %1 = and i32 %0, -2
  %switch = icmp eq i32 %1, 14
  br i1 %switch, label %land.lhs.true, label %if.end

land.lhs.true:                                    ; preds = %entry
  %is_flexible = getelementptr inbounds %struct.Type, ptr %ty, i64 0, i32 13
  %2 = load i8, ptr %is_flexible, align 8
  %3 = and i8 %2, 1
  %tobool.not = icmp eq i8 %3, 0
  br i1 %tobool.not, label %if.end, label %if.then

if.then:                                          ; preds = %land.lhs.true
  call void @llvm.lifetime.start.p0(i64 8, ptr nonnull %head.sroa.0.i)
  %call.i = tail call ptr @copy_type(ptr noundef nonnull %ty) #13
  store ptr null, ptr %head.sroa.0.i, align 8
  %members.i = getelementptr inbounds %struct.Type, ptr %call.i, i64 0, i32 12
  %mem.07.i = load ptr, ptr %members.i, align 8
  %tobool.not8.i = icmp eq ptr %mem.07.i, null
  br i1 %tobool.not8.i, label %copy_struct_type.exit, label %for.body.i

for.body.i:                                       ; preds = %if.then, %for.body.i
  %mem.010.i = phi ptr [ %mem.0.i, %for.body.i ], [ %mem.07.i, %if.then ]
  %cur.09.i = phi ptr [ %call1.i, %for.body.i ], [ %head.sroa.0.i, %if.then ]
  %call1.i = tail call noalias dereferenceable_or_null(56) ptr @calloc(i64 noundef 1, i64 noundef 56) #14
  tail call void @llvm.memcpy.p0.p0.i64(ptr noundef nonnull align 8 dereferenceable(56) %call1.i, ptr noundef nonnull align 8 dereferenceable(56) %mem.010.i, i64 56, i1 false)
  store ptr %call1.i, ptr %cur.09.i, align 8
  %mem.0.i = load ptr, ptr %mem.010.i, align 8
  %tobool.not.i = icmp eq ptr %mem.0.i, null
  br i1 %tobool.not.i, label %for.end.loopexit.i, label %for.body.i, !llvm.loop !32

for.end.loopexit.i:                               ; preds = %for.body.i
  %head.sroa.0.i.0.head.sroa.0.i.0.head.sroa.0.i.0.head.sroa.0.0.head.sroa.0.0.head.sroa.0.0.head.sroa.0.0..pre.i = load ptr, ptr %head.sroa.0.i, align 8
  br label %copy_struct_type.exit

copy_struct_type.exit:                            ; preds = %if.then, %for.end.loopexit.i
  %head.sroa.0.0.head.sroa.0.0.head.sroa.0.0.head.sroa.0.0..i = phi ptr [ %head.sroa.0.i.0.head.sroa.0.i.0.head.sroa.0.i.0.head.sroa.0.0.head.sroa.0.0.head.sroa.0.0.head.sroa.0.0..pre.i, %for.end.loopexit.i ], [ null, %if.then ]
  store ptr %head.sroa.0.0.head.sroa.0.0.head.sroa.0.0.head.sroa.0.0..i, ptr %members.i, align 8
  call void @llvm.lifetime.end.p0(i64 8, ptr nonnull %head.sroa.0.i)
  br label %while.cond

while.cond:                                       ; preds = %while.cond, %copy_struct_type.exit
  %mem.0 = phi ptr [ %head.sroa.0.0.head.sroa.0.0.head.sroa.0.0.head.sroa.0.0..i, %copy_struct_type.exit ], [ %4, %while.cond ]
  %4 = load ptr, ptr %mem.0, align 8
  %tobool4.not = icmp eq ptr %4, null
  br i1 %tobool4.not, label %while.end, label %while.cond, !llvm.loop !33

while.end:                                        ; preds = %while.cond
  %children = getelementptr inbounds %struct.Initializer, ptr %call, i64 0, i32 5
  %5 = load ptr, ptr %children, align 8
  %idx = getelementptr inbounds %struct.Member, ptr %mem.0, i64 0, i32 4
  %6 = load i32, ptr %idx, align 8
  %idxprom = sext i32 %6 to i64
  %arrayidx = getelementptr inbounds ptr, ptr %5, i64 %idxprom
  %7 = load ptr, ptr %arrayidx, align 8
  %ty6 = getelementptr inbounds %struct.Initializer, ptr %7, i64 0, i32 1
  %8 = load ptr, ptr %ty6, align 8
  %ty7 = getelementptr inbounds %struct.Member, ptr %mem.0, i64 0, i32 1
  store ptr %8, ptr %ty7, align 8
  %size = getelementptr inbounds %struct.Type, ptr %8, i64 0, i32 1
  %9 = load i32, ptr %size, align 4
  %size9 = getelementptr inbounds %struct.Type, ptr %call.i, i64 0, i32 1
  %10 = load i32, ptr %size9, align 4
  %add = add nsw i32 %10, %9
  store i32 %add, ptr %size9, align 4
  br label %return

if.end:                                           ; preds = %entry, %land.lhs.true
  %ty10 = getelementptr inbounds %struct.Initializer, ptr %call, i64 0, i32 1
  %11 = load ptr, ptr %ty10, align 8
  br label %return

return:                                           ; preds = %if.end, %while.end
  %storemerge = phi ptr [ %11, %if.end ], [ %call.i, %while.end ]
  store ptr %storemerge, ptr %new_ty, align 8
  ret ptr %call
}